target datalayout = "e-m:e-p270:32:32-p271:32:32-p272:64:64-i64:64-i128:128-f80:128-n8:16:32:64-S128"
target triple = "x86_64-pc-linux-gnu"

%struct.AVFormatContext = type { ptr, ptr, ptr, ptr, ptr, i32, i32, ptr, i32, ptr, i32, ptr, ptr, i64, i64, i64, i32, i32, i32, i64, i64, ptr, i32, i32, ptr, i32, i32, i32, i32, ptr, i64, i32, i32, %struct.AVIOInterruptCB, i32, i32, i32, i32, i64, i32, i32, i32, i32, i32, i32, i32, i32, i32, i32, i32, i32, i64, i32, i32, i32, i32, i32, ptr, ptr, ptr, ptr, i32, ptr, ptr, ptr, ptr, i32, ptr, ptr, i64, ptr, ptr, ptr, i64 }
%struct.AVIOInterruptCB = type { ptr, ptr }
%struct.HashContext = type { ptr, ptr, ptr, i32, i32 }
%struct.AVPacket = type { ptr, i64, i64, ptr, i32, i32, i32, ptr, i32, i64, i64, ptr, ptr, %struct.AVRational }
%struct.AVRational = type { i32, i32 }
%struct.AVStream = type { ptr, i32, i32, ptr, ptr, %struct.AVRational, i64, i64, i64, i32, i32, %struct.AVRational, ptr, %struct.AVRational, %struct.AVPacket, i32, %struct.AVRational, i32 }
%struct.AVCodecParameters = type { i32, i32, i32, ptr, i32, ptr, i32, i32, i64, i32, i32, i32, i32, i32, i32, %struct.AVRational, %struct.AVRational, i32, i32, i32, i32, i32, i32, i32, %struct.AVChannelLayout, i32, i32, i32, i32, i32, i32 }
%struct.AVChannelLayout = type { i32, i32, %union.anon.0, ptr }
%union.anon.0 = type { i64 }

@.str.15 = private unnamed_addr constant [10 x i8] c"%d,%c,%s=\00", align 1
@.str.16 = private unnamed_addr constant [4 x i8] c"%s=\00", align 1
@.str.17 = private unnamed_addr constant [2 x i8] c"\0A\00", align 1

; Function Attrs: nounwind uwtable
define internal signext i8 @get_media_type_char(i32 noundef %0) #0 {
  %2 = alloca i8, align 1
  %3 = alloca i32, align 4
  store i32 %0, ptr %3, align 4, !tbaa !44
  %4 = load i32, ptr %3, align 4, !tbaa !44
  switch i32 %4, label %10 [
    i32 0, label %5
    i32 1, label %6
    i32 2, label %7
    i32 3, label %8
    i32 4, label %9
  ]

5:                                                ; preds = %1
  store i8 118, ptr %2, align 1
  br label %11

6:                                                ; preds = %1
  store i8 97, ptr %2, align 1
  br label %11

7:                                                ; preds = %1
  store i8 100, ptr %2, align 1
  br label %11

8:                                                ; preds = %1
  store i8 115, ptr %2, align 1
  br label %11

9:                                                ; preds = %1
  store i8 116, ptr %2, align 1
  br label %11

10:                                               ; preds = %1
  store i8 63, ptr %2, align 1
  br label %11

11:                                               ; preds = %10, %9, %8, %7, %6, %5
  %12 = load i8, ptr %2, align 1
  ret i8 %12
}

; Function Attrs: nounwind uwtable
define internal i32 @hash_write_trailer(ptr noundef %0) #0 {
  %2 = alloca ptr, align 8
  %3 = alloca ptr, align 8
  %4 = alloca i32, align 4
  %5 = alloca i32, align 4
  %6 = alloca [256 x i8], align 16
  %7 = alloca ptr, align 8
  store ptr %0, ptr %2, align 8, !tbaa !4
  call void @llvm.lifetime.start.p0(i64 8, ptr %3) #5
  %8 = load ptr, ptr %2, align 8, !tbaa !4
  %9 = getelementptr inbounds nuw %struct.AVFormatContext, ptr %8, i32 0, i32 3
  %10 = load ptr, ptr %9, align 8, !tbaa !11
  store ptr %10, ptr %3, align 8, !tbaa !28
  call void @llvm.lifetime.start.p0(i64 4, ptr %4) #5
  %11 = load ptr, ptr %3, align 8, !tbaa !28
  %12 = getelementptr inbounds nuw %struct.HashContext, ptr %11, i32 0, i32 3
  %13 = load i32, ptr %12, align 8, !tbaa !33
  %14 = icmp ne i32 %13, 0
  br i1 %14, label %15, label %19

15:                                               ; preds = %1
  %16 = load ptr, ptr %2, align 8, !tbaa !4
  %17 = getelementptr inbounds nuw %struct.AVFormatContext, ptr %16, i32 0, i32 6
  %18 = load i32, ptr %17, align 4, !tbaa !43
  br label %20

19:                                               ; preds = %1
  br label %20

20:                                               ; preds = %19, %15
  %21 = phi i32 [ %18, %15 ], [ 1, %19 ]
  store i32 %21, ptr %4, align 4, !tbaa !44
  call void @llvm.lifetime.start.p0(i64 4, ptr %5) #5
  store i32 0, ptr %5, align 4, !tbaa !44
  br label %22

22:                                               ; preds = %94, %20
  %23 = load i32, ptr %5, align 4, !tbaa !44
  %24 = load i32, ptr %4, align 4, !tbaa !44
  %25 = icmp slt i32 %23, %24
  br i1 %25, label %27, label %26

26:                                               ; preds = %22
  call void @llvm.lifetime.end.p0(i64 4, ptr %5) #5
  br label %97

27:                                               ; preds = %22
  call void @llvm.lifetime.start.p0(i64 256, ptr %6) #5
  %28 = load ptr, ptr %3, align 8, !tbaa !28
  %29 = getelementptr inbounds nuw %struct.HashContext, ptr %28, i32 0, i32 3
  %30 = load i32, ptr %29, align 8, !tbaa !33
  %31 = icmp ne i32 %30, 0
  br i1 %31, label %32, label %58

32:                                               ; preds = %27
  call void @llvm.lifetime.start.p0(i64 8, ptr %7) #5
  %33 = load ptr, ptr %2, align 8, !tbaa !4
  %34 = getelementptr inbounds nuw %struct.AVFormatContext, ptr %33, i32 0, i32 7
  %35 = load ptr, ptr %34, align 8, !tbaa !45
  %36 = load i32, ptr %5, align 4, !tbaa !44
  %37 = sext i32 %36 to i64
  %38 = getelementptr inbounds ptr, ptr %35, i64 %37
  %39 = load ptr, ptr %38, align 8, !tbaa !46
  store ptr %39, ptr %7, align 8, !tbaa !46
  %40 = getelementptr inbounds [256 x i8], ptr %6, i64 0, i64 0
  %41 = load i32, ptr %5, align 4, !tbaa !44
  %42 = load ptr, ptr %7, align 8, !tbaa !46
  %43 = getelementptr inbounds nuw %struct.AVStream, ptr %42, i32 0, i32 3
  %44 = load ptr, ptr %43, align 8, !tbaa !48
  %45 = getelementptr inbounds nuw %struct.AVCodecParameters, ptr %44, i32 0, i32 0
  %46 = load i32, ptr %45, align 8, !tbaa !51
  %47 = call signext i8 @get_media_type_char(i32 noundef %46)
  %48 = sext i8 %47 to i32
  %49 = load ptr, ptr %3, align 8, !tbaa !28
  %50 = getelementptr inbounds nuw %struct.HashContext, ptr %49, i32 0, i32 1
  %51 = load ptr, ptr %50, align 8, !tbaa !30
  %52 = load i32, ptr %5, align 4, !tbaa !44
  %53 = sext i32 %52 to i64
  %54 = getelementptr inbounds ptr, ptr %51, i64 %53
  %55 = load ptr, ptr %54, align 8, !tbaa !39
  %56 = call ptr @av_hash_get_name(ptr noundef %55)
  %57 = call i32 (ptr, i64, ptr, ...) @snprintf(ptr noundef %40, i64 noundef 56, ptr noundef @.str.15, i32 noundef %41, i32 noundef %48, ptr noundef %56) #5
  call void @llvm.lifetime.end.p0(i64 8, ptr %7) #5
  br label %69

58:                                               ; preds = %27
  %59 = getelementptr inbounds [256 x i8], ptr %6, i64 0, i64 0
  %60 = load ptr, ptr %3, align 8, !tbaa !28
  %61 = getelementptr inbounds nuw %struct.HashContext, ptr %60, i32 0, i32 1
  %62 = load ptr, ptr %61, align 8, !tbaa !30
  %63 = load i32, ptr %5, align 4, !tbaa !44
  %64 = sext i32 %63 to i64
  %65 = getelementptr inbounds ptr, ptr %62, i64 %64
  %66 = load ptr, ptr %65, align 8, !tbaa !39
  %67 = call ptr @av_hash_get_name(ptr noundef %66)
  %68 = call i32 (ptr, i64, ptr, ...) @snprintf(ptr noundef %59, i64 noundef 56, ptr noundef @.str.16, ptr noundef %67) #5
  br label %69

69:                                               ; preds = %58, %32
  %70 = load ptr, ptr %3, align 8, !tbaa !28
  %71 = getelementptr inbounds nuw %struct.HashContext, ptr %70, i32 0, i32 1
  %72 = load ptr, ptr %71, align 8, !tbaa !30
  %73 = load i32, ptr %5, align 4, !tbaa !44
  %74 = sext i32 %73 to i64
  %75 = getelementptr inbounds ptr, ptr %72, i64 %74
  %76 = load ptr, ptr %75, align 8, !tbaa !39
  %77 = getelementptr inbounds [256 x i8], ptr %6, i64 0, i64 0
  %78 = getelementptr inbounds [256 x i8], ptr %6, i64 0, i64 0
  %79 = call i64 @strlen(ptr noundef %78) #6
  %80 = getelementptr inbounds nuw i8, ptr %77, i64 %79
  %81 = getelementptr inbounds [256 x i8], ptr %6, i64 0, i64 0
  %82 = call i64 @strlen(ptr noundef %81) #6
  %83 = sub i64 256, %82
  %84 = trunc i64 %83 to i32
  call void @av_hash_final_hex(ptr noundef %76, ptr noundef %80, i32 noundef %84)
  %85 = getelementptr inbounds [256 x i8], ptr %6, i64 0, i64 0
  %86 = call i64 (ptr, i64, ptr, ...) @av_strlcatf(ptr noundef %85, i64 noundef 256, ptr noundef @.str.17)
  %87 = load ptr, ptr %2, align 8, !tbaa !4
  %88 = getelementptr inbounds nuw %struct.AVFormatContext, ptr %87, i32 0, i32 4
  %89 = load ptr, ptr %88, align 8, !tbaa !54
  %90 = getelementptr inbounds [256 x i8], ptr %6, i64 0, i64 0
  %91 = getelementptr inbounds [256 x i8], ptr %6, i64 0, i64 0
  %92 = call i64 @strlen(ptr noundef %91) #6
  %93 = trunc i64 %92 to i32
  call void @avio_write(ptr noundef %89, ptr noundef %90, i32 noundef %93)
  call void @llvm.lifetime.end.p0(i64 256, ptr %6) #5
  br label %94

94:                                               ; preds = %69
  %95 = load i32, ptr %5, align 4, !tbaa !44
  %96 = add nsw i32 %95, 1
  store i32 %96, ptr %5, align 4, !tbaa !44
  br label %22, !llvm.loop !55

97:                                               ; preds = %26
  call void @llvm.lifetime.end.p0(i64 4, ptr %4) #5
  call void @llvm.lifetime.end.p0(i64 8, ptr %3) #5
  ret i32 0
}