; Function Attrs: nounwind uwtable
define internal noundef i32 @hash_write_trailer(ptr noundef readonly captures(none) %0) #0 {
  %2 = alloca [256 x i8], align 16
  %3 = getelementptr inbounds nuw i8, ptr %0, i64 24
  %4 = load ptr, ptr %3, align 8, !tbaa !4
  %5 = getelementptr inbounds nuw i8, ptr %4, i64 24
  %6 = load i32, ptr %5, align 8, !tbaa !27
  %.not = icmp eq i32 %6, 0
  br i1 %.not, label %.lr.ph, label %7

7:                                                ; preds = %1
  %8 = getelementptr inbounds nuw i8, ptr %0, i64 44
  %9 = load i32, ptr %8, align 4, !tbaa !37
  %10 = icmp sgt i32 %9, 0
  br i1 %10, label %.lr.ph, label %._crit_edge

.lr.ph:                                           ; preds = %1, %7
  %11 = phi i32 [ %9, %7 ], [ 1, %1 ]
  %12 = getelementptr inbounds nuw i8, ptr %0, i64 48
  %13 = getelementptr inbounds nuw i8, ptr %4, i64 8
  %14 = getelementptr inbounds nuw i8, ptr %0, i64 32
  %wide.trip.count = zext nneg i32 %11 to i64
  br label %15

._crit_edge:                                      ; preds = %38, %7
  ret i32 0

15:                                               ; preds = %.lr.ph, %38
  %indvars.iv = phi i64 [ 0, %.lr.ph ], [ %indvars.iv.next, %38 ]
  call void @llvm.lifetime.start.p0(i64 256, ptr nonnull %2) #6
  %16 = load i32, ptr %5, align 8, !tbaa !27
  %.not17 = icmp eq i32 %16, 0
  br i1 %.not17, label %32, label %17

17:                                               ; preds = %15
  %18 = load ptr, ptr %12, align 8, !tbaa !38
  %19 = getelementptr inbounds nuw ptr, ptr %18, i64 %indvars.iv
  %20 = load ptr, ptr %19, align 8, !tbaa !39
  %21 = getelementptr inbounds nuw i8, ptr %20, i64 16
  %22 = load ptr, ptr %21, align 8, !tbaa !41
  %23 = load i32, ptr %22, align 8, !tbaa !44
  %24 = icmp ult i32 %23, 5
  br i1 %24, label %switch.lookup, label %get_media_type_char.exit

switch.lookup:                                    ; preds = %17
  %25 = zext nneg i32 %23 to i64
  %switch.gep = getelementptr inbounds nuw [5 x i32], ptr @switch.table.hash_write_trailer, i64 0, i64 %25
  %switch.load = load i32, ptr %switch.gep, align 4
  br label %get_media_type_char.exit

get_media_type_char.exit:                         ; preds = %17, %switch.lookup
  %.0.i = phi i32 [ %switch.load, %switch.lookup ], [ 63, %17 ]
  %26 = load ptr, ptr %13, align 8, !tbaa !24
  %27 = getelementptr inbounds nuw ptr, ptr %26, i64 %indvars.iv
  %28 = load ptr, ptr %27, align 8, !tbaa !33
  %29 = call ptr @av_hash_get_name(ptr noundef %28) #6
  %30 = trunc nuw nsw i64 %indvars.iv to i32
  %31 = call i32 (ptr, i64, ptr, ...) @snprintf(ptr noundef nonnull dereferenceable(1) %2, i64 noundef 56, ptr noundef nonnull @.str.15, i32 noundef %30, i32 noundef %.0.i, ptr noundef %29) #6
  br label %38

32:                                               ; preds = %15
  %33 = load ptr, ptr %13, align 8, !tbaa !24
  %34 = getelementptr inbounds nuw ptr, ptr %33, i64 %indvars.iv
  %35 = load ptr, ptr %34, align 8, !tbaa !33
  %36 = call ptr @av_hash_get_name(ptr noundef %35) #6
  %37 = call i32 (ptr, i64, ptr, ...) @snprintf(ptr noundef nonnull dereferenceable(1) %2, i64 noundef 56, ptr noundef nonnull @.str.16, ptr noundef %36) #6
  br label %38

38:                                               ; preds = %32, %get_media_type_char.exit
  %39 = load ptr, ptr %13, align 8, !tbaa !24
  %40 = getelementptr inbounds nuw ptr, ptr %39, i64 %indvars.iv
  %41 = load ptr, ptr %40, align 8, !tbaa !33
  %42 = call i64 @strlen(ptr noundef nonnull dereferenceable(1) %2) #7
  %43 = getelementptr inbounds nuw i8, ptr %2, i64 %42
  %44 = trunc i64 %42 to i32
  %45 = sub i32 256, %44
  call void @av_hash_final_hex(ptr noundef %41, ptr noundef nonnull %43, i32 noundef %45) #6
  %46 = call i64 (ptr, i64, ptr, ...) @av_strlcatf(ptr noundef nonnull %2, i64 noundef 256, ptr noundef nonnull @.str.17) #6
  %47 = load ptr, ptr %14, align 8, !tbaa !47
  %48 = call i64 @strlen(ptr noundef nonnull dereferenceable(1) %2) #7
  %49 = trunc i64 %48 to i32
  call void @avio_write(ptr noundef %47, ptr noundef nonnull %2, i32 noundef %49) #6
  call void @llvm.lifetime.end.p0(i64 256, ptr nonnull %2) #6
  %indvars.iv.next = add nuw nsw i64 %indvars.iv, 1
  %exitcond.not = icmp eq i64 %indvars.iv.next, %wide.trip.count
  br i1 %exitcond.not, label %._crit_edge, label %15, !llvm.loop !48
}